; Function Attrs: nounwind uwtable
define internal range(i32 -1, 1) i32 @np_short(ptr noundef readonly captures(none) %0, ptr noundef writeonly captures(none) %1, ptr noundef %2, ptr noundef readonly captures(none) %3) #0 {
  %5 = alloca i64, align 8
  call void @llvm.lifetime.start.p0(i64 8, ptr nonnull %5) #7
  %6 = call fastcc i32 @get_long(ptr noundef %0, ptr noundef %2, ptr noundef %5)
  %7 = icmp slt i32 %6, 0
  br i1 %7, label %8, label %23

8:                                                ; preds = %4
  %9 = load ptr, ptr @PyExc_OverflowError, align 8, !tbaa !17
  %10 = tail call i32 @PyErr_ExceptionMatches(ptr noundef %9) #7
  %.not = icmp eq i32 %10, 0
  br i1 %.not, label %40, label %11

11:                                               ; preds = %8
  %12 = getelementptr inbounds nuw i8, ptr %3, i64 8
  %13 = load i64, ptr %12, align 8, !tbaa !67
  %14 = shl i64 %13, 3
  %15 = sub i64 64, %14
  %16 = getelementptr inbounds nuw i8, ptr %0, i64 24
  %17 = load ptr, ptr %16, align 8, !tbaa !16
  %18 = load i8, ptr %3, align 8, !tbaa !49
  %19 = sext i8 %18 to i32
  %20 = lshr i64 9223372036854775807, %15
  %21 = ashr exact i64 -9223372036854775808, %15
  %22 = tail call ptr (ptr, ptr, ...) @PyErr_Format(ptr noundef %17, ptr noundef nonnull @.str.52, i32 noundef %19, i64 noundef %21, i64 noundef %20) #7
  br label %40

23:                                               ; preds = %4
  %24 = load i64, ptr %5, align 8, !tbaa !81
  %25 = add i64 %24, -32768
  %or.cond = icmp ult i64 %25, -65536
  br i1 %or.cond, label %26, label %38

26:                                               ; preds = %23
  %27 = getelementptr inbounds nuw i8, ptr %3, i64 8
  %28 = load i64, ptr %27, align 8, !tbaa !67
  %29 = shl i64 %28, 3
  %30 = sub i64 64, %29
  %31 = getelementptr inbounds nuw i8, ptr %0, i64 24
  %32 = load ptr, ptr %31, align 8, !tbaa !16
  %33 = load i8, ptr %3, align 8, !tbaa !49
  %34 = sext i8 %33 to i32
  %35 = lshr i64 9223372036854775807, %30
  %36 = ashr exact i64 -9223372036854775808, %30
  %37 = tail call ptr (ptr, ptr, ...) @PyErr_Format(ptr noundef %32, ptr noundef nonnull @.str.52, i32 noundef %34, i64 noundef %36, i64 noundef %35) #7
  br label %40

38:                                               ; preds = %23
  %39 = trunc nsw i64 %24 to i16
  store i16 %39, ptr %1, align 1
  br label %40

40:                                               ; preds = %8, %38, %26, %11
  %.0 = phi i32 [ -1, %11 ], [ -1, %26 ], [ 0, %38 ], [ -1, %8 ]
  call void @llvm.lifetime.end.p0(i64 8, ptr nonnull %5) #7
  ret i32 %.0
}